; Function Attrs: nounwind uwtable
define internal noalias noundef ptr @tcp_segment_temporary_key(ptr noundef readonly captures(none) %0, i32 noundef %1, ptr noundef readonly %2) #0 {
  %.not = icmp eq ptr %2, null
  br i1 %.not, label %4, label %5

4:                                                ; preds = %3
  tail call void (ptr, ...) @proto_report_dissector_bug(ptr noundef nonnull @.str.4, ptr noundef nonnull @.str.5, i32 noundef 3770, ptr noundef nonnull @.str.796) #22
  unreachable

5:                                                ; preds = %3
  %6 = tail call noalias dereferenceable_or_null(64) ptr @g_slice_alloc(i64 noundef 64) #23
  %7 = getelementptr inbounds nuw i8, ptr %0, i64 208
  %8 = load i32, ptr %7, align 8
  %9 = getelementptr inbounds nuw i8, ptr %0, i64 212
  %10 = load i32, ptr %9, align 4
  %11 = getelementptr inbounds nuw i8, ptr %0, i64 216
  %12 = load ptr, ptr %11, align 8
  store i32 %8, ptr %6, align 8
  %13 = getelementptr inbounds nuw i8, ptr %6, i64 4
  store i32 %10, ptr %13, align 4
  %14 = getelementptr inbounds nuw i8, ptr %6, i64 8
  store ptr %12, ptr %14, align 8
  %15 = getelementptr inbounds nuw i8, ptr %6, i64 16
  store ptr null, ptr %15, align 8
  %16 = getelementptr inbounds nuw i8, ptr %6, i64 24
  %17 = getelementptr inbounds nuw i8, ptr %0, i64 232
  %18 = load i32, ptr %17, align 8
  %19 = getelementptr inbounds nuw i8, ptr %0, i64 236
  %20 = load i32, ptr %19, align 4
  %21 = getelementptr inbounds nuw i8, ptr %0, i64 240
  %22 = load ptr, ptr %21, align 8
  store i32 %18, ptr %16, align 8
  %23 = getelementptr inbounds nuw i8, ptr %6, i64 28
  store i32 %20, ptr %23, align 4
  %24 = getelementptr inbounds nuw i8, ptr %6, i64 32
  store ptr %22, ptr %24, align 8
  %25 = getelementptr inbounds nuw i8, ptr %6, i64 40
  store ptr null, ptr %25, align 8
  %26 = getelementptr inbounds nuw i8, ptr %0, i64 284
  %27 = load i32, ptr %26, align 4
  %28 = getelementptr inbounds nuw i8, ptr %6, i64 48
  store i32 %27, ptr %28, align 8
  %29 = getelementptr inbounds nuw i8, ptr %0, i64 288
  %30 = load i32, ptr %29, align 8
  %31 = getelementptr inbounds nuw i8, ptr %6, i64 52
  store i32 %30, ptr %31, align 4
  %32 = getelementptr inbounds nuw i8, ptr %6, i64 56
  store i32 %1, ptr %32, align 8
  %33 = load i32, ptr %2, align 8
  %34 = getelementptr inbounds nuw i8, ptr %6, i64 60
  store i32 %33, ptr %34, align 4
  ret ptr %6
}